
LampModule.elf:     file format elf32-avr

Sections:
Idx Name          Size      VMA       LMA       File off  Algn
  0 .data         00000002  00800200  00000496  0000050a  2**0
                  CONTENTS, ALLOC, LOAD, DATA
  1 .text         00000496  00000000  00000000  00000074  2**1
                  CONTENTS, ALLOC, LOAD, READONLY, CODE
  2 .comment      00000030  00000000  00000000  0000050c  2**0
                  CONTENTS, READONLY
  3 .note.gnu.avr.deviceinfo 00000040  00000000  00000000  0000053c  2**2
                  CONTENTS, READONLY
  4 .debug_aranges 00000098  00000000  00000000  0000057c  2**0
                  CONTENTS, READONLY, DEBUGGING
  5 .debug_info   0000162e  00000000  00000000  00000614  2**0
                  CONTENTS, READONLY, DEBUGGING
  6 .debug_abbrev 0000101f  00000000  00000000  00001c42  2**0
                  CONTENTS, READONLY, DEBUGGING
  7 .debug_line   000007ad  00000000  00000000  00002c61  2**0
                  CONTENTS, READONLY, DEBUGGING
  8 .debug_frame  00000108  00000000  00000000  00003410  2**2
                  CONTENTS, READONLY, DEBUGGING
  9 .debug_str    00000800  00000000  00000000  00003518  2**0
                  CONTENTS, READONLY, DEBUGGING
 10 .debug_loc    000003b5  00000000  00000000  00003d18  2**0
                  CONTENTS, READONLY, DEBUGGING
 11 .debug_ranges 00000080  00000000  00000000  000040cd  2**0
                  CONTENTS, READONLY, DEBUGGING

Disassembly of section .text:

00000000 <__vectors>:
   0:	71 c0       	rjmp	.+226    	; 0xe4 <__ctors_end>
   2:	00 00       	nop
   4:	37 c2       	rjmp	.+1134   	; 0x474 <__vector_1>
   6:	00 00       	nop
   8:	84 c0       	rjmp	.+264    	; 0x112 <__bad_interrupt>
   a:	00 00       	nop
   c:	82 c0       	rjmp	.+260    	; 0x112 <__bad_interrupt>
   e:	00 00       	nop
  10:	80 c0       	rjmp	.+256    	; 0x112 <__bad_interrupt>
  12:	00 00       	nop
  14:	7e c0       	rjmp	.+252    	; 0x112 <__bad_interrupt>
  16:	00 00       	nop
  18:	7c c0       	rjmp	.+248    	; 0x112 <__bad_interrupt>
  1a:	00 00       	nop
  1c:	7a c0       	rjmp	.+244    	; 0x112 <__bad_interrupt>
  1e:	00 00       	nop
  20:	78 c0       	rjmp	.+240    	; 0x112 <__bad_interrupt>
  22:	00 00       	nop
  24:	76 c0       	rjmp	.+236    	; 0x112 <__bad_interrupt>
  26:	00 00       	nop
  28:	74 c0       	rjmp	.+232    	; 0x112 <__bad_interrupt>
  2a:	00 00       	nop
  2c:	72 c0       	rjmp	.+228    	; 0x112 <__bad_interrupt>
  2e:	00 00       	nop
  30:	70 c0       	rjmp	.+224    	; 0x112 <__bad_interrupt>
  32:	00 00       	nop
  34:	6e c0       	rjmp	.+220    	; 0x112 <__bad_interrupt>
  36:	00 00       	nop
  38:	6c c0       	rjmp	.+216    	; 0x112 <__bad_interrupt>
  3a:	00 00       	nop
  3c:	6a c0       	rjmp	.+212    	; 0x112 <__bad_interrupt>
  3e:	00 00       	nop
  40:	68 c0       	rjmp	.+208    	; 0x112 <__bad_interrupt>
  42:	00 00       	nop
  44:	66 c0       	rjmp	.+204    	; 0x112 <__bad_interrupt>
  46:	00 00       	nop
  48:	64 c0       	rjmp	.+200    	; 0x112 <__bad_interrupt>
  4a:	00 00       	nop
  4c:	62 c0       	rjmp	.+196    	; 0x112 <__bad_interrupt>
  4e:	00 00       	nop
  50:	60 c0       	rjmp	.+192    	; 0x112 <__bad_interrupt>
  52:	00 00       	nop
  54:	5e c0       	rjmp	.+188    	; 0x112 <__bad_interrupt>
  56:	00 00       	nop
  58:	5c c0       	rjmp	.+184    	; 0x112 <__bad_interrupt>
  5a:	00 00       	nop
  5c:	5a c0       	rjmp	.+180    	; 0x112 <__bad_interrupt>
  5e:	00 00       	nop
  60:	58 c0       	rjmp	.+176    	; 0x112 <__bad_interrupt>
  62:	00 00       	nop
  64:	56 c0       	rjmp	.+172    	; 0x112 <__bad_interrupt>
  66:	00 00       	nop
  68:	54 c0       	rjmp	.+168    	; 0x112 <__bad_interrupt>
  6a:	00 00       	nop
  6c:	52 c0       	rjmp	.+164    	; 0x112 <__bad_interrupt>
  6e:	00 00       	nop
  70:	50 c0       	rjmp	.+160    	; 0x112 <__bad_interrupt>
  72:	00 00       	nop
  74:	4e c0       	rjmp	.+156    	; 0x112 <__bad_interrupt>
  76:	00 00       	nop
  78:	4c c0       	rjmp	.+152    	; 0x112 <__bad_interrupt>
  7a:	00 00       	nop
  7c:	4a c0       	rjmp	.+148    	; 0x112 <__bad_interrupt>
  7e:	00 00       	nop
  80:	48 c0       	rjmp	.+144    	; 0x112 <__bad_interrupt>
  82:	00 00       	nop
  84:	46 c0       	rjmp	.+140    	; 0x112 <__bad_interrupt>
  86:	00 00       	nop
  88:	44 c0       	rjmp	.+136    	; 0x112 <__bad_interrupt>
  8a:	00 00       	nop
  8c:	42 c0       	rjmp	.+132    	; 0x112 <__bad_interrupt>
  8e:	00 00       	nop
  90:	40 c0       	rjmp	.+128    	; 0x112 <__bad_interrupt>
  92:	00 00       	nop
  94:	3e c0       	rjmp	.+124    	; 0x112 <__bad_interrupt>
  96:	00 00       	nop
  98:	3c c0       	rjmp	.+120    	; 0x112 <__bad_interrupt>
  9a:	00 00       	nop
  9c:	3a c0       	rjmp	.+116    	; 0x112 <__bad_interrupt>
  9e:	00 00       	nop
  a0:	38 c0       	rjmp	.+112    	; 0x112 <__bad_interrupt>
  a2:	00 00       	nop
  a4:	36 c0       	rjmp	.+108    	; 0x112 <__bad_interrupt>
  a6:	00 00       	nop
  a8:	34 c0       	rjmp	.+104    	; 0x112 <__bad_interrupt>
  aa:	00 00       	nop
  ac:	32 c0       	rjmp	.+100    	; 0x112 <__bad_interrupt>
  ae:	00 00       	nop
  b0:	30 c0       	rjmp	.+96     	; 0x112 <__bad_interrupt>
  b2:	00 00       	nop
  b4:	2e c0       	rjmp	.+92     	; 0x112 <__bad_interrupt>
  b6:	00 00       	nop
  b8:	2c c0       	rjmp	.+88     	; 0x112 <__bad_interrupt>
  ba:	00 00       	nop
  bc:	2a c0       	rjmp	.+84     	; 0x112 <__bad_interrupt>
  be:	00 00       	nop
  c0:	28 c0       	rjmp	.+80     	; 0x112 <__bad_interrupt>
  c2:	00 00       	nop
  c4:	26 c0       	rjmp	.+76     	; 0x112 <__bad_interrupt>
  c6:	00 00       	nop
  c8:	24 c0       	rjmp	.+72     	; 0x112 <__bad_interrupt>
  ca:	00 00       	nop
  cc:	22 c0       	rjmp	.+68     	; 0x112 <__bad_interrupt>
  ce:	00 00       	nop
  d0:	20 c0       	rjmp	.+64     	; 0x112 <__bad_interrupt>
  d2:	00 00       	nop
  d4:	1e c0       	rjmp	.+60     	; 0x112 <__bad_interrupt>
  d6:	00 00       	nop
  d8:	1c c0       	rjmp	.+56     	; 0x112 <__bad_interrupt>
  da:	00 00       	nop
  dc:	1a c0       	rjmp	.+52     	; 0x112 <__bad_interrupt>
  de:	00 00       	nop
  e0:	18 c0       	rjmp	.+48     	; 0x112 <__bad_interrupt>
	...

000000e4 <__ctors_end>:
  e4:	11 24       	eor	r1, r1
  e6:	1f be       	out	0x3f, r1	; 63
  e8:	cf ef       	ldi	r28, 0xFF	; 255
  ea:	d1 e2       	ldi	r29, 0x21	; 33
  ec:	de bf       	out	0x3e, r29	; 62
  ee:	cd bf       	out	0x3d, r28	; 61
  f0:	00 e0       	ldi	r16, 0x00	; 0
  f2:	0c bf       	out	0x3c, r16	; 60

000000f4 <__do_copy_data>:
  f4:	12 e0       	ldi	r17, 0x02	; 2
  f6:	a0 e0       	ldi	r26, 0x00	; 0
  f8:	b2 e0       	ldi	r27, 0x02	; 2
  fa:	e6 e9       	ldi	r30, 0x96	; 150
  fc:	f4 e0       	ldi	r31, 0x04	; 4
  fe:	00 e0       	ldi	r16, 0x00	; 0
 100:	0b bf       	out	0x3b, r16	; 59
 102:	02 c0       	rjmp	.+4      	; 0x108 <__do_copy_data+0x14>
 104:	07 90       	elpm	r0, Z+
 106:	0d 92       	st	X+, r0
 108:	a2 30       	cpi	r26, 0x02	; 2
 10a:	b1 07       	cpc	r27, r17
 10c:	d9 f7       	brne	.-10     	; 0x104 <__do_copy_data+0x10>
 10e:	26 d1       	rcall	.+588    	; 0x35c <main>
 110:	c0 c1       	rjmp	.+896    	; 0x492 <_exit>

00000112 <__bad_interrupt>:
 112:	76 cf       	rjmp	.-276    	; 0x0 <__vectors>

00000114 <_ZN10lampDriverC1Ev>:
#include <avr/io.h>

lampDriver::lampDriver()
{
	//Initialiser timer 4 i 8bit PWM og sluk timeren.
	TCCR2A = (0b10000001);
 114:	21 e8       	ldi	r18, 0x81	; 129
 116:	20 93 b0 00 	sts	0x00B0, r18	; 0x8000b0 <__TEXT_REGION_LENGTH__+0x7000b0>
	TCCR2B = (0b00000011);
 11a:	23 e0       	ldi	r18, 0x03	; 3
 11c:	20 93 b1 00 	sts	0x00B1, r18	; 0x8000b1 <__TEXT_REGION_LENGTH__+0x7000b1>
	DDRB |= 1<<4;
 120:	24 9a       	sbi	0x04, 4	; 4
	PORTB &= ~(1<<4);
 122:	2c 98       	cbi	0x05, 4	; 5
	
	dimValue_ = 100;
 124:	24 e6       	ldi	r18, 0x64	; 100
 126:	30 e0       	ldi	r19, 0x00	; 0
 128:	fc 01       	movw	r30, r24
 12a:	31 83       	std	Z+1, r19	; 0x01
 12c:	20 83       	st	Z, r18
	OCR2A = 0;
 12e:	10 92 b3 00 	sts	0x00B3, r1	; 0x8000b3 <__TEXT_REGION_LENGTH__+0x7000b3>
 132:	08 95       	ret

00000134 <_ZN10lampDriver9turnOnLEDEv>:
	return;
}

void lampDriver::turnOnLED()
{
	OCR2A = dimValue_;
 134:	fc 01       	movw	r30, r24
 136:	80 81       	ld	r24, Z
 138:	80 93 b3 00 	sts	0x00B3, r24	; 0x8000b3 <__TEXT_REGION_LENGTH__+0x7000b3>
 13c:	08 95       	ret

0000013e <_ZN10lampDriver10turnOffLEDEv>:
	return;
}

void lampDriver::turnOffLED()
{
	OCR2A = 0;
 13e:	10 92 b3 00 	sts	0x00B3, r1	; 0x8000b3 <__TEXT_REGION_LENGTH__+0x7000b3>
 142:	08 95       	ret

00000144 <_ZN10lampDriver11setDimValueEi>:
	return;
}

void lampDriver::setDimValue(int dimValue)
{
	if(dimValue >= 0 && dimValue <= 100)
 144:	65 36       	cpi	r22, 0x65	; 101
 146:	71 05       	cpc	r23, r1
 148:	28 f4       	brcc	.+10     	; 0x154 <_ZN10lampDriver11setDimValueEi+0x10>
	{
		dimValue_ = dimValue;
 14a:	fc 01       	movw	r30, r24
 14c:	71 83       	std	Z+1, r23	; 0x01
 14e:	60 83       	st	Z, r22
		OCR2A = dimValue_;
 150:	60 93 b3 00 	sts	0x00B3, r22	; 0x8000b3 <__TEXT_REGION_LENGTH__+0x7000b3>
 154:	08 95       	ret

00000156 <_ZN6X10_RXC1Ei>:
 *  Author: HansK
 */ 
#include "X10_RX.h"
#include <avr/io.h>

X10_RX::X10_RX(int address)
 156:	dc 01       	movw	r26, r24
{
	EICRA = 0b00000001; //Interrupt 0 aktiveres på rising edge og falling edge
 158:	81 e0       	ldi	r24, 0x01	; 1
 15a:	80 93 69 00 	sts	0x0069, r24	; 0x800069 <__TEXT_REGION_LENGTH__+0x700069>
	EIMSK = 0b00000001; // Interrupt 0 enables
 15e:	8d bb       	out	0x1d, r24	; 29
	DDRH &= ~(1<<5); // PORTH5 (pin 8) sættes til at være input 
 160:	e1 e0       	ldi	r30, 0x01	; 1
 162:	f1 e0       	ldi	r31, 0x01	; 1
 164:	80 81       	ld	r24, Z
 166:	8f 7d       	andi	r24, 0xDF	; 223
 168:	80 83       	st	Z, r24
	
	bitCnt_ = 0;
 16a:	53 96       	adiw	r26, 0x13	; 19
 16c:	1c 92       	st	X, r1
 16e:	1e 92       	st	-X, r1
 170:	52 97       	sbiw	r26, 0x12	; 18
	receivingData_ = false;
 172:	51 96       	adiw	r26, 0x11	; 17
 174:	1c 92       	st	X, r1
 176:	51 97       	sbiw	r26, 0x11	; 17
 178:	cd 01       	movw	r24, r26
 17a:	08 96       	adiw	r24, 0x08	; 8
 17c:	9d 01       	movw	r18, r26
 17e:	20 5f       	subi	r18, 0xF0	; 240
 180:	3f 4f       	sbci	r19, 0xFF	; 255
 182:	fc 01       	movw	r30, r24

	// rawData initialiseres
	for (int i = 0; i < 8; i++)
	{
		rawData_[i] = false;
 184:	11 92       	st	Z+, r1
	
	bitCnt_ = 0;
	receivingData_ = false;

	// rawData initialiseres
	for (int i = 0; i < 8; i++)
 186:	e2 17       	cp	r30, r18
 188:	f3 07       	cpc	r31, r19
 18a:	e1 f7       	brne	.-8      	; 0x184 <_ZN6X10_RXC1Ei+0x2e>
 18c:	fd 01       	movw	r30, r26
		rawData_[i] = false;
	}
	// startBuffer initialiseres
	for (int i = 0; i < 8; i++)
	{
		startBuffer_[i] = false;
 18e:	11 92       	st	Z+, r1
	for (int i = 0; i < 8; i++)
	{
		rawData_[i] = false;
	}
	// startBuffer initialiseres
	for (int i = 0; i < 8; i++)
 190:	8e 17       	cp	r24, r30
 192:	9f 07       	cpc	r25, r31
 194:	e1 f7       	brne	.-8      	; 0x18e <_ZN6X10_RXC1Ei+0x38>
	{
		startBuffer_[i] = false;
	}
	
	// start delen startArray initialiseres
	startArray_[0] = 1;
 196:	81 e0       	ldi	r24, 0x01	; 1
 198:	55 96       	adiw	r26, 0x15	; 21
 19a:	8c 93       	st	X, r24
 19c:	55 97       	sbiw	r26, 0x15	; 21
	startArray_[1] = 1;
 19e:	56 96       	adiw	r26, 0x16	; 22
 1a0:	8c 93       	st	X, r24
 1a2:	56 97       	sbiw	r26, 0x16	; 22
	startArray_[2] = 1;
 1a4:	57 96       	adiw	r26, 0x17	; 23
 1a6:	8c 93       	st	X, r24
 1a8:	57 97       	sbiw	r26, 0x17	; 23
	startArray_[3] = 0;
 1aa:	58 96       	adiw	r26, 0x18	; 24
 1ac:	1c 92       	st	X, r1
 1ae:	58 97       	sbiw	r26, 0x18	; 24
	
	// adresse delen startArray initialiseres
	if (address == 0)
 1b0:	61 15       	cp	r22, r1
 1b2:	71 05       	cpc	r23, r1
 1b4:	61 f4       	brne	.+24     	; 0x1ce <_ZN6X10_RXC1Ei+0x78>
	{
		startArray_[4] = 0;
 1b6:	59 96       	adiw	r26, 0x19	; 25
 1b8:	1c 92       	st	X, r1
 1ba:	59 97       	sbiw	r26, 0x19	; 25
		startArray_[5] = 1;
 1bc:	5a 96       	adiw	r26, 0x1a	; 26
 1be:	8c 93       	st	X, r24
 1c0:	5a 97       	sbiw	r26, 0x1a	; 26
		startArray_[6] = 0;
 1c2:	5b 96       	adiw	r26, 0x1b	; 27
 1c4:	1c 92       	st	X, r1
 1c6:	5b 97       	sbiw	r26, 0x1b	; 27
		startArray_[7] = 1;
 1c8:	5c 96       	adiw	r26, 0x1c	; 28
 1ca:	8c 93       	st	X, r24
 1cc:	08 95       	ret
	}
	else if (address == 1)
 1ce:	61 30       	cpi	r22, 0x01	; 1
 1d0:	71 05       	cpc	r23, r1
 1d2:	69 f4       	brne	.+26     	; 0x1ee <_ZN6X10_RXC1Ei+0x98>
	{
		startArray_[4] = 0;
 1d4:	59 96       	adiw	r26, 0x19	; 25
 1d6:	1c 92       	st	X, r1
 1d8:	59 97       	sbiw	r26, 0x19	; 25
		startArray_[5] = 1;
 1da:	81 e0       	ldi	r24, 0x01	; 1
 1dc:	5a 96       	adiw	r26, 0x1a	; 26
 1de:	8c 93       	st	X, r24
 1e0:	5a 97       	sbiw	r26, 0x1a	; 26
		startArray_[6] = 1;
 1e2:	5b 96       	adiw	r26, 0x1b	; 27
 1e4:	8c 93       	st	X, r24
 1e6:	5b 97       	sbiw	r26, 0x1b	; 27
		startArray_[7] = 0;
 1e8:	5c 96       	adiw	r26, 0x1c	; 28
 1ea:	1c 92       	st	X, r1
 1ec:	08 95       	ret
	}
	else if (address == 2)
 1ee:	62 30       	cpi	r22, 0x02	; 2
 1f0:	71 05       	cpc	r23, r1
 1f2:	69 f4       	brne	.+26     	; 0x20e <_ZN6X10_RXC1Ei+0xb8>
	{
		startArray_[4] = 1;
 1f4:	81 e0       	ldi	r24, 0x01	; 1
 1f6:	59 96       	adiw	r26, 0x19	; 25
 1f8:	8c 93       	st	X, r24
 1fa:	59 97       	sbiw	r26, 0x19	; 25
		startArray_[5] = 0;
 1fc:	5a 96       	adiw	r26, 0x1a	; 26
 1fe:	1c 92       	st	X, r1
 200:	5a 97       	sbiw	r26, 0x1a	; 26
		startArray_[6] = 0;
 202:	5b 96       	adiw	r26, 0x1b	; 27
 204:	1c 92       	st	X, r1
 206:	5b 97       	sbiw	r26, 0x1b	; 27
		startArray_[7] = 1;
 208:	5c 96       	adiw	r26, 0x1c	; 28
 20a:	8c 93       	st	X, r24
 20c:	08 95       	ret
	}
	else if (address == 3)
 20e:	63 30       	cpi	r22, 0x03	; 3
 210:	71 05       	cpc	r23, r1
 212:	61 f4       	brne	.+24     	; 0x22c <_ZN6X10_RXC1Ei+0xd6>
	{
		startArray_[4] = 1;
 214:	81 e0       	ldi	r24, 0x01	; 1
 216:	59 96       	adiw	r26, 0x19	; 25
 218:	8c 93       	st	X, r24
 21a:	59 97       	sbiw	r26, 0x19	; 25
		startArray_[5] = 0;
 21c:	5a 96       	adiw	r26, 0x1a	; 26
 21e:	1c 92       	st	X, r1
 220:	5a 97       	sbiw	r26, 0x1a	; 26
		startArray_[6] = 1;
 222:	5b 96       	adiw	r26, 0x1b	; 27
 224:	8c 93       	st	X, r24
 226:	5b 97       	sbiw	r26, 0x1b	; 27
		startArray_[7] = 0;
 228:	5c 96       	adiw	r26, 0x1c	; 28
 22a:	1c 92       	st	X, r1
 22c:	08 95       	ret

0000022e <_ZN6X10_RX11convertDataEv>:
	}
	return newDataReady_;
}

bool X10_RX::convertData()
{
 22e:	fc 01       	movw	r30, r24
	// convert databit 0:
	if (rawData_[0] == 0 && rawData_[1] == 1)
 230:	80 85       	ldd	r24, Z+8	; 0x08
 232:	81 11       	cpse	r24, r1
 234:	08 c0       	rjmp	.+16     	; 0x246 <_ZN6X10_RX11convertDataEv+0x18>
 236:	81 85       	ldd	r24, Z+9	; 0x09
 238:	88 23       	and	r24, r24
 23a:	09 f4       	brne	.+2      	; 0x23e <_ZN6X10_RX11convertDataEv+0x10>
 23c:	42 c0       	rjmp	.+132    	; 0x2c2 <_ZN6X10_RX11convertDataEv+0x94>
	{
		convertedDataChar_ &= ~(1<<3);
 23e:	80 89       	ldd	r24, Z+16	; 0x10
 240:	87 7f       	andi	r24, 0xF7	; 247
 242:	80 8b       	std	Z+16, r24	; 0x10
 244:	06 c0       	rjmp	.+12     	; 0x252 <_ZN6X10_RX11convertDataEv+0x24>
	}
	else if (rawData_[0] == 1 && rawData_[1] == 0)
 246:	81 85       	ldd	r24, Z+9	; 0x09
 248:	81 11       	cpse	r24, r1
 24a:	34 c0       	rjmp	.+104    	; 0x2b4 <_ZN6X10_RX11convertDataEv+0x86>
	{
		convertedDataChar_ |= (1<<3);
 24c:	80 89       	ldd	r24, Z+16	; 0x10
 24e:	88 60       	ori	r24, 0x08	; 8
 250:	80 8b       	std	Z+16, r24	; 0x10
	{
		return 0;
	}

	// convert databit 1:
	if (rawData_[2] == 0 && rawData_[3] == 1)
 252:	82 85       	ldd	r24, Z+10	; 0x0a
 254:	81 11       	cpse	r24, r1
 256:	07 c0       	rjmp	.+14     	; 0x266 <_ZN6X10_RX11convertDataEv+0x38>
 258:	83 85       	ldd	r24, Z+11	; 0x0b
 25a:	88 23       	and	r24, r24
 25c:	91 f1       	breq	.+100    	; 0x2c2 <_ZN6X10_RX11convertDataEv+0x94>
	{
		convertedDataChar_ &= ~(1<<2);
 25e:	80 89       	ldd	r24, Z+16	; 0x10
 260:	8b 7f       	andi	r24, 0xFB	; 251
 262:	80 8b       	std	Z+16, r24	; 0x10
 264:	06 c0       	rjmp	.+12     	; 0x272 <_ZN6X10_RX11convertDataEv+0x44>
	}
	else if (rawData_[2] == 1 && rawData_[3] == 0)
 266:	83 85       	ldd	r24, Z+11	; 0x0b
 268:	81 11       	cpse	r24, r1
 26a:	26 c0       	rjmp	.+76     	; 0x2b8 <_ZN6X10_RX11convertDataEv+0x8a>
	{
		convertedDataChar_ |= (1<<2);
 26c:	80 89       	ldd	r24, Z+16	; 0x10
 26e:	84 60       	ori	r24, 0x04	; 4
 270:	80 8b       	std	Z+16, r24	; 0x10
	{
		return 0;
	}

	// convert databit 2:
	if (rawData_[4] == 0 && rawData_[5] == 1)
 272:	84 85       	ldd	r24, Z+12	; 0x0c
 274:	81 11       	cpse	r24, r1
 276:	07 c0       	rjmp	.+14     	; 0x286 <_ZN6X10_RX11convertDataEv+0x58>
 278:	85 85       	ldd	r24, Z+13	; 0x0d
 27a:	88 23       	and	r24, r24
 27c:	11 f1       	breq	.+68     	; 0x2c2 <_ZN6X10_RX11convertDataEv+0x94>
	{
		convertedDataChar_ &= ~(1<<1);
 27e:	80 89       	ldd	r24, Z+16	; 0x10
 280:	8d 7f       	andi	r24, 0xFD	; 253
 282:	80 8b       	std	Z+16, r24	; 0x10
 284:	06 c0       	rjmp	.+12     	; 0x292 <_ZN6X10_RX11convertDataEv+0x64>
	}
	else if (rawData_[4] == 1 && rawData_[5] == 0)
 286:	85 85       	ldd	r24, Z+13	; 0x0d
 288:	81 11       	cpse	r24, r1
 28a:	18 c0       	rjmp	.+48     	; 0x2bc <_ZN6X10_RX11convertDataEv+0x8e>
	{
		convertedDataChar_ |= (1<<1);
 28c:	80 89       	ldd	r24, Z+16	; 0x10
 28e:	82 60       	ori	r24, 0x02	; 2
 290:	80 8b       	std	Z+16, r24	; 0x10
	{
		return 0;
	}

	// convert databit 3:
	if (rawData_[6] == 0 && rawData_[7] == 1)
 292:	86 85       	ldd	r24, Z+14	; 0x0e
 294:	81 11       	cpse	r24, r1
 296:	07 c0       	rjmp	.+14     	; 0x2a6 <_ZN6X10_RX11convertDataEv+0x78>
 298:	87 85       	ldd	r24, Z+15	; 0x0f
 29a:	88 23       	and	r24, r24
 29c:	91 f0       	breq	.+36     	; 0x2c2 <_ZN6X10_RX11convertDataEv+0x94>
	{
		convertedDataChar_ &= ~(1<<0);
 29e:	90 89       	ldd	r25, Z+16	; 0x10
 2a0:	9e 7f       	andi	r25, 0xFE	; 254
 2a2:	90 8b       	std	Z+16, r25	; 0x10
 2a4:	08 95       	ret
	}
	else if (rawData_[6] == 1 && rawData_[7] == 0)
 2a6:	97 85       	ldd	r25, Z+15	; 0x0f
 2a8:	91 11       	cpse	r25, r1
 2aa:	0a c0       	rjmp	.+20     	; 0x2c0 <_ZN6X10_RX11convertDataEv+0x92>
	{
		convertedDataChar_ |= (1<<0);
 2ac:	90 89       	ldd	r25, Z+16	; 0x10
 2ae:	91 60       	ori	r25, 0x01	; 1
 2b0:	90 8b       	std	Z+16, r25	; 0x10
 2b2:	08 95       	ret
	{
		convertedDataChar_ |= (1<<3);
	}
	else
	{
		return 0;
 2b4:	80 e0       	ldi	r24, 0x00	; 0
 2b6:	08 95       	ret
	{
		convertedDataChar_ |= (1<<2);
	}
	else
	{
		return 0;
 2b8:	80 e0       	ldi	r24, 0x00	; 0
 2ba:	08 95       	ret
	{
		convertedDataChar_ |= (1<<1);
	}
	else
	{
		return 0;
 2bc:	80 e0       	ldi	r24, 0x00	; 0
 2be:	08 95       	ret
	{
		convertedDataChar_ |= (1<<0);
	}
	else
	{
		return 0;
 2c0:	80 e0       	ldi	r24, 0x00	; 0
	}

	return 1;
}
 2c2:	08 95       	ret

000002c4 <_ZN6X10_RX9dataReadyEb>:
	}
	return;
}

bool X10_RX::dataReady(bool dataBit)
{
 2c4:	cf 93       	push	r28
 2c6:	df 93       	push	r29
 2c8:	ec 01       	movw	r28, r24
	newDataReady_ = false;
 2ca:	1c 8a       	std	Y+20, r1	; 0x14
	
	if (receivingData_ == false)
 2cc:	89 89       	ldd	r24, Y+17	; 0x11
 2ce:	81 11       	cpse	r24, r1
 2d0:	1a c0       	rjmp	.+52     	; 0x306 <_ZN6X10_RX9dataReadyEb+0x42>
 2d2:	fe 01       	movw	r30, r28
 2d4:	9e 01       	movw	r18, r28
 2d6:	29 5f       	subi	r18, 0xF9	; 249
 2d8:	3f 4f       	sbci	r19, 0xFF	; 255
	{
		// Forskyd startBuffer 1 til højre
		for (int i = 0; i < 7; i++)
		{
			startBuffer_[i] = startBuffer_[i + 1];
 2da:	81 81       	ldd	r24, Z+1	; 0x01
 2dc:	81 93       	st	Z+, r24
	newDataReady_ = false;
	
	if (receivingData_ == false)
	{
		// Forskyd startBuffer 1 til højre
		for (int i = 0; i < 7; i++)
 2de:	e2 17       	cp	r30, r18
 2e0:	f3 07       	cpc	r31, r19
 2e2:	d9 f7       	brne	.-10     	; 0x2da <_ZN6X10_RX9dataReadyEb+0x16>
		{
			startBuffer_[i] = startBuffer_[i + 1];
		}
		
		// Indsæt det databit som er modtaget på den bagerste plads
		startBuffer_[7] = dataBit;
 2e4:	6f 83       	std	Y+7, r22	; 0x07

		// Kontroller om arrayet er = startArray
		for (int i = 0; i < 8; i++)
		{
			if (startBuffer_[i] == startArray_[i])
 2e6:	98 81       	ld	r25, Y
 2e8:	8d 89       	ldd	r24, Y+21	; 0x15
 2ea:	98 17       	cp	r25, r24
 2ec:	41 f1       	breq	.+80     	; 0x33e <_ZN6X10_RX9dataReadyEb+0x7a>
 2ee:	09 c0       	rjmp	.+18     	; 0x302 <_ZN6X10_RX9dataReadyEb+0x3e>
 2f0:	91 91       	ld	r25, Z+
 2f2:	84 89       	ldd	r24, Z+20	; 0x14
 2f4:	98 13       	cpse	r25, r24
 2f6:	05 c0       	rjmp	.+10     	; 0x302 <_ZN6X10_RX9dataReadyEb+0x3e>
			{
				receivingData_ = true;
 2f8:	29 8b       	std	Y+17, r18	; 0x11
		
		// Indsæt det databit som er modtaget på den bagerste plads
		startBuffer_[7] = dataBit;

		// Kontroller om arrayet er = startArray
		for (int i = 0; i < 8; i++)
 2fa:	e4 17       	cp	r30, r20
 2fc:	f5 07       	cpc	r31, r21
 2fe:	c1 f7       	brne	.-16     	; 0x2f0 <_ZN6X10_RX9dataReadyEb+0x2c>
 300:	1c c0       	rjmp	.+56     	; 0x33a <_ZN6X10_RX9dataReadyEb+0x76>
			{
				receivingData_ = true;
			}
			else
			{
				receivingData_ = false;
 302:	19 8a       	std	Y+17, r1	; 0x11
				break;
 304:	1a c0       	rjmp	.+52     	; 0x33a <_ZN6X10_RX9dataReadyEb+0x76>
		}
	}

	else if (receivingData_ == true )
	{
		if (bitCnt_ < 7)
 306:	8a 89       	ldd	r24, Y+18	; 0x12
 308:	9b 89       	ldd	r25, Y+19	; 0x13
 30a:	87 30       	cpi	r24, 0x07	; 7
 30c:	91 05       	cpc	r25, r1
 30e:	44 f4       	brge	.+16     	; 0x320 <_ZN6X10_RX9dataReadyEb+0x5c>
		{
			rawData_[bitCnt_] = dataBit;
 310:	fe 01       	movw	r30, r28
 312:	e8 0f       	add	r30, r24
 314:	f9 1f       	adc	r31, r25
 316:	60 87       	std	Z+8, r22	; 0x08
			bitCnt_++;
 318:	01 96       	adiw	r24, 0x01	; 1
 31a:	9b 8b       	std	Y+19, r25	; 0x13
 31c:	8a 8b       	std	Y+18, r24	; 0x12
 31e:	0d c0       	rjmp	.+26     	; 0x33a <_ZN6X10_RX9dataReadyEb+0x76>
		}
		else if (bitCnt_ == 7)
 320:	07 97       	sbiw	r24, 0x07	; 7
 322:	41 f4       	brne	.+16     	; 0x334 <_ZN6X10_RX9dataReadyEb+0x70>
		{
			rawData_[bitCnt_] = dataBit;
 324:	6f 87       	std	Y+15, r22	; 0x0f
			newDataReady_ = convertData();
 326:	ce 01       	movw	r24, r28
 328:	82 df       	rcall	.-252    	; 0x22e <_ZN6X10_RX11convertDataEv>
 32a:	8c 8b       	std	Y+20, r24	; 0x14
			receivingData_ = false;
 32c:	19 8a       	std	Y+17, r1	; 0x11
			bitCnt_ = 0;
 32e:	1b 8a       	std	Y+19, r1	; 0x13
 330:	1a 8a       	std	Y+18, r1	; 0x12
 332:	03 c0       	rjmp	.+6      	; 0x33a <_ZN6X10_RX9dataReadyEb+0x76>
		}
		else
		{
			receivingData_ = false;
 334:	19 8a       	std	Y+17, r1	; 0x11
			bitCnt_ = 0;
 336:	1b 8a       	std	Y+19, r1	; 0x13
 338:	1a 8a       	std	Y+18, r1	; 0x12
		}
		
	}
	return newDataReady_;
 33a:	8c 89       	ldd	r24, Y+20	; 0x14
 33c:	09 c0       	rjmp	.+18     	; 0x350 <_ZN6X10_RX9dataReadyEb+0x8c>
		// Kontroller om arrayet er = startArray
		for (int i = 0; i < 8; i++)
		{
			if (startBuffer_[i] == startArray_[i])
			{
				receivingData_ = true;
 33e:	81 e0       	ldi	r24, 0x01	; 1
 340:	89 8b       	std	Y+17, r24	; 0x11
 342:	fe 01       	movw	r30, r28
 344:	31 96       	adiw	r30, 0x01	; 1
 346:	ae 01       	movw	r20, r28
 348:	48 5f       	subi	r20, 0xF8	; 248
 34a:	5f 4f       	sbci	r21, 0xFF	; 255
 34c:	21 e0       	ldi	r18, 0x01	; 1
 34e:	d0 cf       	rjmp	.-96     	; 0x2f0 <_ZN6X10_RX9dataReadyEb+0x2c>
			bitCnt_ = 0;
		}
		
	}
	return newDataReady_;
}
 350:	df 91       	pop	r29
 352:	cf 91       	pop	r28
 354:	08 95       	ret

00000356 <_ZN6X10_RX7getDataEv>:
}

char X10_RX::getData()
{
	return convertedDataChar_;
}
 356:	fc 01       	movw	r30, r24
 358:	80 89       	ldd	r24, Z+16	; 0x10
 35a:	08 95       	ret

0000035c <main>:
#include "X10_RX.h"
#include "lampDriver.h"
char state = 'I'; // I = Idle, R = Receiving

int main(void)
{		
 35c:	cf 93       	push	r28
 35e:	df 93       	push	r29
 360:	cd b7       	in	r28, 0x3d	; 61
 362:	de b7       	in	r29, 0x3e	; 62
 364:	6f 97       	sbiw	r28, 0x1f	; 31
 366:	0f b6       	in	r0, 0x3f	; 63
 368:	f8 94       	cli
 36a:	de bf       	out	0x3e, r29	; 62
 36c:	0f be       	out	0x3f, r0	; 63
 36e:	cd bf       	out	0x3d, r28	; 61
	X10_RX lampReceiver(2);
 370:	62 e0       	ldi	r22, 0x02	; 2
 372:	70 e0       	ldi	r23, 0x00	; 0
 374:	ce 01       	movw	r24, r28
 376:	01 96       	adiw	r24, 0x01	; 1
 378:	ee de       	rcall	.-548    	; 0x156 <_ZN6X10_RXC1Ei>
	lampDriver myLamp;
 37a:	ce 01       	movw	r24, r28
 37c:	4e 96       	adiw	r24, 0x1e	; 30
 37e:	ca de       	rcall	.-620    	; 0x114 <_ZN10lampDriverC1Ev>
	bool newDataReady = false; //Fortæller hvornår der er et helt datasæt uden fejl klar
	char dataChar = 0; // char som indeholder det sidst modtagne data
	
	myLamp.turnOnLED();
 380:	ce 01       	movw	r24, r28
 382:	4e 96       	adiw	r24, 0x1e	; 30
 384:	d7 de       	rcall	.-594    	; 0x134 <_ZN10lampDriver9turnOnLEDEv>
	#else
		//round up by default
		__ticks_dc = (uint32_t)(ceil(fabs(__tmp)));
	#endif

	__builtin_avr_delay_cycles(__ticks_dc);
 386:	2f ef       	ldi	r18, 0xFF	; 255
 388:	8b e7       	ldi	r24, 0x7B	; 123
 38a:	92 e9       	ldi	r25, 0x92	; 146
 38c:	21 50       	subi	r18, 0x01	; 1
 38e:	80 40       	sbci	r24, 0x00	; 0
 390:	90 40       	sbci	r25, 0x00	; 0
 392:	e1 f7       	brne	.-8      	; 0x38c <main+0x30>
 394:	00 c0       	rjmp	.+0      	; 0x396 <main+0x3a>
	_delay_ms(3000);
	myLamp.turnOffLED();
 396:	00 00       	nop
 398:	ce 01       	movw	r24, r28
 39a:	4e 96       	adiw	r24, 0x1e	; 30
 39c:	d0 de       	rcall	.-608    	; 0x13e <_ZN10lampDriver10turnOffLEDEv>
	
	
	sei();				// Enable Interrupt
 39e:	78 94       	sei
		// Hvis state er = 'R' vil det sige at der har været et zerocrossing interrupt. 
		// Derfor skal dataReady kaldes
		if (state == 'R')
		{
			_delay_us(400); // vent til midten af burst som er 1ms
			newDataReady = lampReceiver.dataReady(PINH & (1 << 5)); //dataReady() returnerer true hvis der er et helt datasæt uden fejl klar.
 3a0:	e1 2c       	mov	r14, r1
 3a2:	ff 24       	eor	r15, r15
 3a4:	f3 94       	inc	r15
			state = 'I';
 3a6:	19 e4       	ldi	r17, 0x49	; 73
	
    while (1) 
    {
		// Hvis state er = 'R' vil det sige at der har været et zerocrossing interrupt. 
		// Derfor skal dataReady kaldes
		if (state == 'R')
 3a8:	80 91 00 02 	lds	r24, 0x0200	; 0x800200 <__data_start>
 3ac:	82 35       	cpi	r24, 0x52	; 82
 3ae:	e1 f7       	brne	.-8      	; 0x3a8 <main+0x4c>
	#else
		//round up by default
		__ticks_dc = (uint32_t)(ceil(fabs(__tmp)));
	#endif

	__builtin_avr_delay_cycles(__ticks_dc);
 3b0:	ef e3       	ldi	r30, 0x3F	; 63
 3b2:	f6 e0       	ldi	r31, 0x06	; 6
 3b4:	31 97       	sbiw	r30, 0x01	; 1
 3b6:	f1 f7       	brne	.-4      	; 0x3b4 <main+0x58>
 3b8:	00 c0       	rjmp	.+0      	; 0x3ba <main+0x5e>
 3ba:	00 00       	nop
		{
			_delay_us(400); // vent til midten af burst som er 1ms
			newDataReady = lampReceiver.dataReady(PINH & (1 << 5)); //dataReady() returnerer true hvis der er et helt datasæt uden fejl klar.
 3bc:	f7 01       	movw	r30, r14
 3be:	60 81       	ld	r22, Z
 3c0:	65 fb       	bst	r22, 5
 3c2:	66 27       	eor	r22, r22
 3c4:	60 f9       	bld	r22, 0
 3c6:	ce 01       	movw	r24, r28
 3c8:	01 96       	adiw	r24, 0x01	; 1
 3ca:	7c df       	rcall	.-264    	; 0x2c4 <_ZN6X10_RX9dataReadyEb>
			state = 'I';
 3cc:	10 93 00 02 	sts	0x0200, r17	; 0x800200 <__data_start>
		}
		
		
		if (newDataReady == true)
 3d0:	88 23       	and	r24, r24
		{
			dataChar = lampReceiver.getData();
 3d2:	51 f3       	breq	.-44     	; 0x3a8 <main+0x4c>
 3d4:	ce 01       	movw	r24, r28
 3d6:	01 96       	adiw	r24, 0x01	; 1
			
			if (dataChar == (0b0001))
 3d8:	be df       	rcall	.-132    	; 0x356 <_ZN6X10_RX7getDataEv>
 3da:	81 30       	cpi	r24, 0x01	; 1
			{
				myLamp.turnOffLED();
 3dc:	21 f4       	brne	.+8      	; 0x3e6 <main+0x8a>
 3de:	ce 01       	movw	r24, r28
 3e0:	4e 96       	adiw	r24, 0x1e	; 30
 3e2:	ad de       	rcall	.-678    	; 0x13e <_ZN10lampDriver10turnOffLEDEv>
			}
			else if (dataChar == (0b0010))
 3e4:	e1 cf       	rjmp	.-62     	; 0x3a8 <main+0x4c>
 3e6:	82 30       	cpi	r24, 0x02	; 2
			{
				myLamp.turnOnLED();
 3e8:	21 f4       	brne	.+8      	; 0x3f2 <main+0x96>
 3ea:	ce 01       	movw	r24, r28
 3ec:	4e 96       	adiw	r24, 0x1e	; 30
 3ee:	a2 de       	rcall	.-700    	; 0x134 <_ZN10lampDriver9turnOnLEDEv>
			}
			else if (dataChar == (0b1000))
 3f0:	db cf       	rjmp	.-74     	; 0x3a8 <main+0x4c>
 3f2:	88 30       	cpi	r24, 0x08	; 8
			{
				myLamp.setDimValue(32); // 255*0,125=32
 3f4:	31 f4       	brne	.+12     	; 0x402 <__LOCK_REGION_LENGTH__+0x2>
 3f6:	60 e2       	ldi	r22, 0x20	; 32
 3f8:	70 e0       	ldi	r23, 0x00	; 0
 3fa:	ce 01       	movw	r24, r28
 3fc:	4e 96       	adiw	r24, 0x1e	; 30
 3fe:	a2 de       	rcall	.-700    	; 0x144 <_ZN10lampDriver11setDimValueEi>
			}
			else if (dataChar == (0b1001))
 400:	d3 cf       	rjmp	.-90     	; 0x3a8 <main+0x4c>
 402:	89 30       	cpi	r24, 0x09	; 9
			{
				myLamp.setDimValue(64); //255*0,25=64
 404:	31 f4       	brne	.+12     	; 0x412 <__LOCK_REGION_LENGTH__+0x12>
 406:	60 e4       	ldi	r22, 0x40	; 64
 408:	70 e0       	ldi	r23, 0x00	; 0
 40a:	ce 01       	movw	r24, r28
 40c:	4e 96       	adiw	r24, 0x1e	; 30
 40e:	9a de       	rcall	.-716    	; 0x144 <_ZN10lampDriver11setDimValueEi>
			}
			else if (dataChar == (0b1010))
 410:	cb cf       	rjmp	.-106    	; 0x3a8 <main+0x4c>
 412:	8a 30       	cpi	r24, 0x0A	; 10
			{
				myLamp.setDimValue(96); //255*0,375=96
 414:	31 f4       	brne	.+12     	; 0x422 <__LOCK_REGION_LENGTH__+0x22>
 416:	60 e6       	ldi	r22, 0x60	; 96
 418:	70 e0       	ldi	r23, 0x00	; 0
 41a:	ce 01       	movw	r24, r28
 41c:	4e 96       	adiw	r24, 0x1e	; 30
 41e:	92 de       	rcall	.-732    	; 0x144 <_ZN10lampDriver11setDimValueEi>
			}
			else if (dataChar == (0b1011))
 420:	c3 cf       	rjmp	.-122    	; 0x3a8 <main+0x4c>
 422:	8b 30       	cpi	r24, 0x0B	; 11
			{
				myLamp.setDimValue(128); // 255*0,5=128
 424:	31 f4       	brne	.+12     	; 0x432 <__LOCK_REGION_LENGTH__+0x32>
 426:	60 e8       	ldi	r22, 0x80	; 128
 428:	70 e0       	ldi	r23, 0x00	; 0
 42a:	ce 01       	movw	r24, r28
 42c:	4e 96       	adiw	r24, 0x1e	; 30
 42e:	8a de       	rcall	.-748    	; 0x144 <_ZN10lampDriver11setDimValueEi>
			}
			else if (dataChar == (0b1100))
 430:	bb cf       	rjmp	.-138    	; 0x3a8 <main+0x4c>
 432:	8c 30       	cpi	r24, 0x0C	; 12
			{
				myLamp.setDimValue(159); // 255*0,625=159
 434:	31 f4       	brne	.+12     	; 0x442 <__LOCK_REGION_LENGTH__+0x42>
 436:	6f e9       	ldi	r22, 0x9F	; 159
 438:	70 e0       	ldi	r23, 0x00	; 0
 43a:	ce 01       	movw	r24, r28
 43c:	4e 96       	adiw	r24, 0x1e	; 30
 43e:	82 de       	rcall	.-764    	; 0x144 <_ZN10lampDriver11setDimValueEi>
			}
			else if (dataChar == (0b1101))
 440:	b3 cf       	rjmp	.-154    	; 0x3a8 <main+0x4c>
			{
				myLamp.setDimValue(191); // 255*0,75=191
 442:	8d 30       	cpi	r24, 0x0D	; 13
 444:	31 f4       	brne	.+12     	; 0x452 <__LOCK_REGION_LENGTH__+0x52>
 446:	6f eb       	ldi	r22, 0xBF	; 191
 448:	70 e0       	ldi	r23, 0x00	; 0
 44a:	ce 01       	movw	r24, r28
 44c:	4e 96       	adiw	r24, 0x1e	; 30
 44e:	7a de       	rcall	.-780    	; 0x144 <_ZN10lampDriver11setDimValueEi>
			}
			else if (dataChar == (0b1110))
 450:	ab cf       	rjmp	.-170    	; 0x3a8 <main+0x4c>
			{
				myLamp.setDimValue(223); // 255*0,875=223
 452:	8e 30       	cpi	r24, 0x0E	; 14
 454:	31 f4       	brne	.+12     	; 0x462 <__LOCK_REGION_LENGTH__+0x62>
 456:	6f ed       	ldi	r22, 0xDF	; 223
 458:	70 e0       	ldi	r23, 0x00	; 0
 45a:	ce 01       	movw	r24, r28
 45c:	4e 96       	adiw	r24, 0x1e	; 30
 45e:	72 de       	rcall	.-796    	; 0x144 <_ZN10lampDriver11setDimValueEi>
			}
			else if (dataChar == (0b1111))
 460:	a3 cf       	rjmp	.-186    	; 0x3a8 <main+0x4c>
 462:	8f 30       	cpi	r24, 0x0F	; 15
 464:	09 f0       	breq	.+2      	; 0x468 <__LOCK_REGION_LENGTH__+0x68>
			{
				myLamp.setDimValue(255); //255*1,00=255
 466:	a0 cf       	rjmp	.-192    	; 0x3a8 <main+0x4c>
 468:	6f ef       	ldi	r22, 0xFF	; 255
 46a:	70 e0       	ldi	r23, 0x00	; 0
 46c:	ce 01       	movw	r24, r28
 46e:	4e 96       	adiw	r24, 0x1e	; 30
 470:	69 de       	rcall	.-814    	; 0x144 <_ZN10lampDriver11setDimValueEi>
 472:	9a cf       	rjmp	.-204    	; 0x3a8 <main+0x4c>

00000474 <__vector_1>:
		
    }
}

ISR(INT0_vect)
{
 474:	1f 92       	push	r1
 476:	0f 92       	push	r0
 478:	0f b6       	in	r0, 0x3f	; 63
 47a:	0f 92       	push	r0
 47c:	11 24       	eor	r1, r1
 47e:	8f 93       	push	r24
	state = 'R';
 480:	82 e5       	ldi	r24, 0x52	; 82
 482:	80 93 00 02 	sts	0x0200, r24	; 0x800200 <__data_start>
}
 486:	8f 91       	pop	r24
 488:	0f 90       	pop	r0
 48a:	0f be       	out	0x3f, r0	; 63
 48c:	0f 90       	pop	r0
 48e:	1f 90       	pop	r1
 490:	18 95       	reti

00000492 <_exit>:
 492:	f8 94       	cli

00000494 <__stop_program>:
 494:	ff cf       	rjmp	.-2      	; 0x494 <__stop_program>
